ccopy_reg
_reconstructor
p1
(cxmppd.modules.db_fake
DictWatch
p2
c__builtin__
dict
p3
(dp4
S'127.0.0.1'
p5
g1
(g2
g3
(dp6
S'acc'
p7
g1
(g2
g3
(dp8
S'name'
p9
S'ACC'
p10
sS'groups'
p11
g1
(g2
g3
(dtRp12
sS'roster'
p13
g1
(g2
g3
(dtRp14
sS'anon_allow'
p15
S'yes'
p16
sS'password'
p17
S'IPYsrSsy'
p18
sS'storage'
p19
g1
(g2
g3
(dtRp20
stRp21
sS'df'
p22
g1
(g2
g3
(dp23
g9
S'DF'
p24
sg11
g1
(g2
g3
(dtRp25
sg13
g1
(g2
g3
(dtRp26
sg15
g16
sg17
S'PPLysedE'
p27
sg19
g1
(g2
g3
(dtRp28
stRp29
sS'ams'
p30
g1
(g2
g3
(dp31
g9
S'AMS'
p32
sg11
g1
(g2
g3
(dtRp33
sg13
g1
(g2
g3
(dtRp34
sg15
g16
sg17
S'PeHXzcls'
p35
sg19
g1
(g2
g3
(dtRp36
stRp37
sS'__ir__'
p38
(dp39
g15
g16
sg17
S'test'
p40
sg19
(dp41
S'karma'
p42
(dp43
S'down'
p44
I307200
sS'tot_up'
p45
I0
sS'tot_down'
p46
I0
sS'up'
p47
I307200307200307200
sS'last_time'
p48
F0
sssg11
(dp49
sg13
(dp50
sstRp51
stRp52
.