ccopy_reg
_reconstructor
p1
(cxmppd.modules.db_fake
DictWatch
p2
c__builtin__
dict
p3
(dp4
S'127.0.0.1'
p5
g1
(g2
g3
(dp6
S'acc'
p7
g1
(g2
g3
(dp8
S'name'
p9
S'ACC'
p10
sS'groups'
p11
g1
(g2
g3
(dtRp12
sS'roster'
p13
g1
(g2
g3
(dtRp14
sS'anon_allow'
p15
S'yes'
p16
sS'password'
p17
S'SJRqEvht'
p18
sS'storage'
p19
g1
(g2
g3
(dtRp20
stRp21
sS'df'
p22
g1
(g2
g3
(dp23
g9
S'DF'
p24
sg11
g1
(g2
g3
(dtRp25
sg13
g1
(g2
g3
(dtRp26
sg15
g16
sg17
S'dEAXElJB'
p27
sg19
g1
(g2
g3
(dtRp28
stRp29
sVagent_alimentacion
p30
g1
(g2
g3
(dp31
S'name'
p32
Vagent_alimentacion
p33
sS'groups'
p34
g1
(g2
g3
(dtRp35
sS'roster'
p36
g1
(g2
g3
(dp37
Vams.127.0.0.1
p38
(dp39
S'state'
p40
S''
sS'subscription'
p41
S'to'
p42
sstRp43
sS'anon_allow'
p44
S'yes'
p45
sS'password'
p46
Vsecret
p47
sS'storage'
p48
g1
(g2
g3
(dtRp49
stRp50
sVagent_reproduccion
p51
g1
(g2
g3
(dp52
g32
Vagent_reproduccion
p53
sg34
g1
(g2
g3
(dtRp54
sg36
g1
(g2
g3
(dp55
Vams.127.0.0.1
p56
(dp57
g40
S''
sg41
g42
sstRp58
sg44
g45
sg46
Vsecret
p59
sg48
g1
(g2
g3
(dtRp60
stRp61
sS'ams'
p62
g1
(g2
g3
(dp63
g9
S'AMS'
p64
sg11
g1
(g2
g3
(dtRp65
sg13
g1
(g2
g3
(dp66
S'agent_sanidad@127.0.0.1'
p67
(dp68
S'state'
p69
S''
sS'subscription'
p70
S'from'
p71
ssS'agent_reproduccion@127.0.0.1'
p72
(dp73
g69
S''
sg70
g71
ssS'agent_produccion@127.0.0.1'
p74
(dp75
g69
S''
sg70
g71
ssS'agent_alimentacion@127.0.0.1'
p76
(dp77
g69
S''
sg70
g71
sstRp78
sg15
g16
sg17
S'ebuIFWbi'
p79
sg19
g1
(g2
g3
(dtRp80
stRp81
sVagent_sanidad
p82
g1
(g2
g3
(dp83
g32
Vagent_sanidad
p84
sg34
g1
(g2
g3
(dtRp85
sg36
g1
(g2
g3
(dp86
Vams.127.0.0.1
p87
(dp88
g40
S''
sg41
g42
sstRp89
sg44
g45
sg46
Vsecret
p90
sg48
g1
(g2
g3
(dtRp91
stRp92
sVagent_produccion
p93
g1
(g2
g3
(dp94
S'name'
p95
Vagent_produccion
p96
sS'groups'
p97
g1
(g2
g3
(dtRp98
sS'roster'
p99
g1
(g2
g3
(dp100
Vams.127.0.0.1
p101
(dp102
S'state'
p103
S''
sS'subscription'
p104
S'to'
p105
sstRp106
sS'anon_allow'
p107
S'yes'
p108
sS'password'
p109
Vsecret
p110
sS'storage'
p111
g1
(g2
g3
(dtRp112
stRp113
sS'__ir__'
p114
(dp115
g15
g16
sg17
S'test'
p116
sg19
(dp117
S'karma'
p118
(dp119
S'down'
p120
I307200
sS'tot_up'
p121
I0
sS'tot_down'
p122
I0
sS'up'
p123
I307200307200307200
sS'last_time'
p124
F0
sssg11
(dp125
sg13
(dp126
sstRp127
stRp128
.